target datalayout = "e-m:e-p270:32:32-p271:32:32-p272:64:64-i64:64-i128:128-f80:128-n8:16:32:64-S128"
target triple = "x86_64-unknown-linux-gnu"

; Function Attrs: mustprogress nounwind uwtable
define dso_local noundef double @_Z10cie_interpPKdd(ptr noundef %data, double noundef %x) #4 {
entry:
  %data.addr = alloca ptr, align 8
  %x.addr = alloca double, align 8
  %offset = alloca i32, align 4
  %weight = alloca double, align 8
  store ptr %data, ptr %data.addr, align 8
  store double %x, ptr %x.addr, align 8
  %0 = load double, ptr %x.addr, align 8
  %sub = fsub double %0, 3.600000e+02
  store double %sub, ptr %x.addr, align 8
  %1 = load double, ptr %x.addr, align 8
  %mul = fmul double %1, 2.000000e-01
  store double %mul, ptr %x.addr, align 8
  %2 = load double, ptr %x.addr, align 8
  %conv = fptosi double %2 to i32
  store i32 %conv, ptr %offset, align 4
  %3 = load i32, ptr %offset, align 4
  %cmp = icmp slt i32 %3, 0
  br i1 %cmp, label %if.then, label %if.end

if.then:                                          ; preds = %entry
  store i32 0, ptr %offset, align 4
  br label %if.end

if.end:                                           ; preds = %if.then, %entry
  %4 = load i32, ptr %offset, align 4
  %cmp1 = icmp sgt i32 %4, 93
  br i1 %cmp1, label %if.then2, label %if.end3

if.then2:                                         ; preds = %if.end
  store i32 93, ptr %offset, align 4
  br label %if.end3

if.end3:                                          ; preds = %if.then2, %if.end
  %5 = load double, ptr %x.addr, align 8
  %6 = load i32, ptr %offset, align 4
  %conv4 = sitofp i32 %6 to double
  %sub5 = fsub double %5, %conv4
  store double %sub5, ptr %weight, align 8
  %7 = load double, ptr %weight, align 8
  %sub6 = fsub double 1.000000e+00, %7
  %8 = load ptr, ptr %data.addr, align 8
  %9 = load i32, ptr %offset, align 4
  %idxprom = sext i32 %9 to i64
  %arrayidx = getelementptr inbounds double, ptr %8, i64 %idxprom
  %10 = load double, ptr %arrayidx, align 8
  %mul7 = fmul double %sub6, %10
  %11 = load double, ptr %weight, align 8
  %12 = load ptr, ptr %data.addr, align 8
  %13 = load i32, ptr %offset, align 4
  %add = add nsw i32 %13, 1
  %idxprom8 = sext i32 %add to i64
  %arrayidx9 = getelementptr inbounds double, ptr %12, i64 %idxprom8
  %14 = load double, ptr %arrayidx9, align 8
  %mul10 = fmul double %11, %14
  %add11 = fadd double %mul7, %mul10
  ret double %add11
}