; Function Attrs: mustprogress nofree norecurse nosync nounwind willreturn memory(argmem: read) uwtable
define dso_local noundef double @_Z10cie_interpPKdd(ptr nocapture noundef readonly %data, double noundef %x) local_unnamed_addr #3 {
entry:
  %sub = fadd double %x, -3.600000e+02
  %mul = fmul double %sub, 2.000000e-01
  %conv = fptosi double %mul to i32
  %spec.store.select = tail call i32 @llvm.smax.i32(i32 %conv, i32 0)
  %spec.store.select1 = tail call i32 @llvm.umin.i32(i32 %spec.store.select, i32 93)
  %conv4 = sitofp i32 %spec.store.select1 to double
  %sub5 = fsub double %mul, %conv4
  %sub6 = fsub double 1.000000e+00, %sub5
  %idxprom = zext nneg i32 %spec.store.select1 to i64
  %arrayidx = getelementptr inbounds double, ptr %data, i64 %idxprom
  %0 = load double, ptr %arrayidx, align 8
  %mul7 = fmul double %sub6, %0
  %arrayidx9 = getelementptr i8, ptr %arrayidx, i64 8
  %1 = load double, ptr %arrayidx9, align 8
  %mul10 = fmul double %sub5, %1
  %add11 = fadd double %mul7, %mul10
  ret double %add11
}